Certificate:
    Data:
        Version: 3 (0x2)
        Serial Number:
            31:64:6d:c5:6d:b2:78:6c:4e:a8:74:9b:61:11:c5:f8:61:96:67:24
        Signature Algorithm: sha256WithRSAEncryption
        Issuer: C = US, ST = CA, L = Torrance, O = home, OU = self, CN = root-ca, emailAddress = don.restauri@gmail.com
        Validity
            Not Before: Jan 27 06:06:27 2023 GMT
            Not After : Jan 24 06:06:27 2033 GMT
        Subject: C = US, ST = CA, L = Torrance, O = home, OU = self, CN = root-ca, emailAddress = don.restauri@gmail.com
        Subject Public Key Info:
            Public Key Algorithm: rsaEncryption
                RSA Public-Key: (2048 bit)
                Modulus:
                    00:e3:5b:f2:ea:dc:d6:78:59:72:a1:11:af:ac:d9:
                    7f:4f:3b:35:70:26:14:8b:9e:69:84:fd:35:4b:27:
                    ab:9c:f3:a7:4d:b3:18:f4:13:3e:b7:55:6d:18:42:
                    94:2a:46:ec:e1:83:51:80:f9:a7:91:2f:39:e2:c2:
                    de:c1:e1:05:92:82:df:db:93:2a:88:11:82:e7:99:
                    d7:73:d4:1e:2b:af:bd:8a:f2:9e:96:5f:3e:df:cd:
                    aa:af:cd:f4:67:f1:07:73:21:c6:ba:9c:e3:40:9a:
                    2d:7a:a0:42:32:48:b5:5d:2b:df:21:ba:7f:08:5a:
                    b4:58:bb:69:60:2a:b9:e0:11:75:b7:0e:d6:2a:55:
                    27:19:97:64:8b:16:0e:c7:d2:49:96:50:27:38:53:
                    62:67:33:97:06:b8:28:40:7a:ff:b9:c2:59:04:d3:
                    67:78:d5:07:19:b4:b0:67:2e:2f:bb:cd:94:a0:ab:
                    4c:95:f5:c1:0c:73:45:eb:4b:df:8a:c7:30:4b:9f:
                    6e:31:7d:46:fe:d9:a5:7b:39:aa:dc:e1:f1:84:9e:
                    01:14:a2:b0:06:ee:9b:c2:fc:86:41:f0:16:00:41:
                    ea:a5:eb:8b:9c:e3:76:66:46:1d:0e:6d:28:ab:55:
                    69:90:ea:bf:7f:18:0f:ee:2c:90:bd:ab:e3:b8:84:
                    73:0d
                Exponent: 65537 (0x10001)
        X509v3 extensions:
            X509v3 Subject Key Identifier: 
                4D:B5:44:6A:76:37:61:06:B8:69:60:5C:11:F8:2F:06:FF:78:49:1F
            X509v3 Authority Key Identifier: 
                keyid:4D:B5:44:6A:76:37:61:06:B8:69:60:5C:11:F8:2F:06:FF:78:49:1F

            X509v3 Basic Constraints: critical
                CA:TRUE
    Signature Algorithm: sha256WithRSAEncryption
         38:10:98:90:6e:5b:3b:37:e9:27:a3:dd:2d:8b:f5:a8:68:ed:
         30:02:d4:88:5c:f5:05:b1:01:98:4f:60:54:90:1f:2a:72:3b:
         b2:d1:f2:df:87:2f:de:93:18:c5:a7:95:06:11:92:ad:15:09:
         47:7c:97:3e:3d:fc:c1:85:f7:c3:1f:32:3b:df:2c:f9:94:62:
         b5:8b:71:ce:e3:3b:9f:ad:4b:4c:50:7e:04:a9:ee:83:7b:b7:
         30:32:4c:98:bb:9c:6b:9c:3a:c8:2e:6b:c1:d3:e7:15:54:45:
         30:60:92:f5:7c:fe:30:72:7c:14:18:4a:1d:ae:83:34:43:bd:
         98:11:cb:65:2e:71:dc:a6:42:ce:ca:d5:08:74:3e:23:8e:ef:
         77:d0:25:ab:61:f2:c2:81:22:f9:09:d0:2c:4b:4c:ce:ea:fd:
         1a:e6:20:39:58:fa:0c:99:0c:9a:26:8d:ec:95:2e:87:65:ee:
         ea:65:90:b3:e8:3f:f3:ae:7c:95:8e:4d:ca:33:94:28:ab:c4:
         a1:66:74:66:8e:fe:f8:fe:f2:26:a7:af:45:ec:d2:cb:92:41:
         f2:3c:7c:b0:2a:11:a5:54:ab:b1:d4:62:1a:ae:11:24:bf:1d:
         86:2e:b4:bf:b0:87:5b:21:27:68:c8:29:d3:e7:2d:49:f1:ad:
         6a:ed:52:fd
-----BEGIN CERTIFICATE-----
MIID6zCCAtOgAwIBAgIUMWRtxW2yeGxOqHSbYRHF+GGWZyQwDQYJKoZIhvcNAQEL
BQAwgYQxCzAJBgNVBAYTAlVTMQswCQYDVQQIDAJDQTERMA8GA1UEBwwIVG9ycmFu
Y2UxDTALBgNVBAoMBGhvbWUxDTALBgNVBAsMBHNlbGYxEDAOBgNVBAMMB3Jvb3Qt
Y2ExJTAjBgkqhkiG9w0BCQEWFmRvbi5yZXN0YXVyaUBnbWFpbC5jb20wHhcNMjMw
MTI3MDYwNjI3WhcNMzMwMTI0MDYwNjI3WjCBhDELMAkGA1UEBhMCVVMxCzAJBgNV
BAgMAkNBMREwDwYDVQQHDAhUb3JyYW5jZTENMAsGA1UECgwEaG9tZTENMAsGA1UE
CwwEc2VsZjEQMA4GA1UEAwwHcm9vdC1jYTElMCMGCSqGSIb3DQEJARYWZG9uLnJl
c3RhdXJpQGdtYWlsLmNvbTCCASIwDQYJKoZIhvcNAQEBBQADggEPADCCAQoCggEB
AONb8urc1nhZcqERr6zZf087NXAmFIueaYT9NUsnq5zzp02zGPQTPrdVbRhClCpG
7OGDUYD5p5EvOeLC3sHhBZKC39uTKogRgueZ13PUHiuvvYrynpZfPt/Nqq/N9Gfx
B3Mhxrqc40CaLXqgQjJItV0r3yG6fwhatFi7aWAqueARdbcO1ipVJxmXZIsWDsfS
SZZQJzhTYmczlwa4KEB6/7nCWQTTZ3jVBxm0sGcuL7vNlKCrTJX1wQxzRetL34rH
MEufbjF9Rv7ZpXs5qtzh8YSeARSisAbum8L8hkHwFgBB6qXri5zjdmZGHQ5tKKtV
aZDqv38YD+4skL2r47iEcw0CAwEAAaNTMFEwHQYDVR0OBBYEFE21RGp2N2EGuGlg
XBH4Lwb/eEkfMB8GA1UdIwQYMBaAFE21RGp2N2EGuGlgXBH4Lwb/eEkfMA8GA1Ud
EwEB/wQFMAMBAf8wDQYJKoZIhvcNAQELBQADggEBADgQmJBuWzs36Sej3S2L9aho
7TAC1Ihc9QWxAZhPYFSQHypyO7LR8t+HL96TGMWnlQYRkq0VCUd8lz49/MGF98Mf
MjvfLPmUYrWLcc7jO5+tS0xQfgSp7oN7tzAyTJi7nGucOsgua8HT5xVURTBgkvV8
/jByfBQYSh2ugzRDvZgRy2UucdymQs7K1Qh0PiOO73fQJath8sKBIvkJ0CxLTM7q
/RrmIDlY+gyZDJomjeyVLodl7uplkLPoP/OufJWOTcozlCirxKFmdGaO/vj+8ian
r0Xs0suSQfI8fLAqEaVUq7HUYhquESS/HYYutL+wh1shJ2jIKdPnLUnxrWrtUv0=
-----END CERTIFICATE-----
