Certificate:
    Data:
        Version: 1 (0x0)
        Serial Number:
            1a:25:be:39:24:fb:03:ce:13:04:0c:a5:52:3f:d1:92:ea:4f:c6:ef
        Signature Algorithm: sha256WithRSAEncryption
        Issuer: C = US, ST = CA, L = Torrance, O = home, OU = self, CN = root-ca, emailAddress = don.restauri@gmail.com
        Validity
            Not Before: Jan 27 06:06:29 2023 GMT
            Not After : Jan 24 06:06:29 2033 GMT
        Subject: C = US, ST = CA, L = Torrance, O = home, OU = self, CN = artemis-client, emailAddress = don.restauri@gmail.com
        Subject Public Key Info:
            Public Key Algorithm: rsaEncryption
                RSA Public-Key: (2048 bit)
                Modulus:
                    00:9b:07:a4:94:8b:82:66:36:0b:c8:b7:8b:d6:9b:
                    ff:6b:87:91:36:b1:05:65:0f:8d:78:fd:d2:ba:f7:
                    a0:2e:c6:d3:14:db:e8:a6:53:48:c4:76:4c:da:4b:
                    21:fc:34:72:95:c5:c7:88:ed:fd:9e:c7:1f:d6:68:
                    fb:e0:ba:f9:0c:f1:0a:af:37:7c:d1:a4:ef:7d:04:
                    c8:66:2d:7a:80:fb:25:a7:48:19:94:b2:ed:9d:0e:
                    dc:a6:2b:44:18:c8:2c:9b:34:5e:20:8c:90:6c:af:
                    bb:e8:43:ed:bc:f5:77:a0:8d:a3:54:be:78:f3:54:
                    f0:f0:61:64:9f:33:5b:e3:bd:90:6c:8d:a7:7f:86:
                    ec:b5:48:91:0c:b7:05:0f:00:e0:de:52:30:eb:26:
                    9a:2e:6a:7a:d2:1e:58:df:dd:2c:d5:88:08:d8:bd:
                    60:6c:e2:2a:10:9b:61:9b:31:63:c5:fe:d7:77:81:
                    7a:9c:c6:d8:90:5d:15:78:57:95:dc:65:71:c7:19:
                    46:4a:b1:41:f9:d4:0c:6f:ea:9b:6b:ee:41:dc:79:
                    da:68:ef:68:37:60:16:0e:c8:33:59:1c:3a:d5:f1:
                    71:53:75:25:84:ce:11:54:57:03:0c:40:d5:c8:19:
                    f6:2c:ff:99:5c:76:f5:7d:76:04:14:ac:66:fd:f8:
                    2a:af
                Exponent: 65537 (0x10001)
    Signature Algorithm: sha256WithRSAEncryption
         2d:81:1e:81:29:09:39:d6:45:c6:82:f7:eb:b6:42:71:98:25:
         26:f3:e3:0e:3d:e4:25:8f:d2:5e:3c:c8:73:54:5e:4a:82:6e:
         04:63:9b:3e:39:bf:4b:02:66:01:9d:25:d6:db:bc:d3:ef:e6:
         06:5f:e2:c7:7b:f4:4a:53:c5:8f:2c:a8:af:8c:90:8f:10:77:
         c6:02:bd:e7:b2:25:d2:d8:d8:a6:ca:a1:91:b8:f3:ae:b6:1b:
         bc:40:e3:64:0f:5a:12:cb:07:9f:7c:d6:f0:81:a6:0f:b1:7d:
         dc:a3:21:53:3d:0d:33:3e:19:78:b0:98:3e:e9:9c:52:e1:21:
         d9:2c:4e:89:a4:8e:dc:3a:03:7b:d2:b9:ba:18:4d:0e:a7:89:
         81:9b:1e:2c:e5:ac:cb:c9:73:01:7c:83:81:51:72:1b:ed:2b:
         39:ef:1a:ef:73:74:b4:0a:e5:e2:ff:6e:1f:70:50:82:16:31:
         fe:35:04:83:d0:03:66:ba:25:bf:05:90:85:91:72:64:54:be:
         f9:95:e0:d6:39:f7:89:5d:a2:14:62:0e:57:03:30:53:5e:32:
         d5:cf:4c:44:09:03:ce:97:1f:bd:6e:86:4d:aa:76:ae:47:df:
         f9:db:13:ed:49:d5:73:cd:b2:76:67:48:a5:c3:ef:3b:aa:56:
         d5:1d:08:08
-----BEGIN CERTIFICATE-----
MIIDmDCCAoACFBolvjkk+wPOEwQMpVI/0ZLqT8bvMA0GCSqGSIb3DQEBCwUAMIGE
MQswCQYDVQQGEwJVUzELMAkGA1UECAwCQ0ExETAPBgNVBAcMCFRvcnJhbmNlMQ0w
CwYDVQQKDARob21lMQ0wCwYDVQQLDARzZWxmMRAwDgYDVQQDDAdyb290LWNhMSUw
IwYJKoZIhvcNAQkBFhZkb24ucmVzdGF1cmlAZ21haWwuY29tMB4XDTIzMDEyNzA2
MDYyOVoXDTMzMDEyNDA2MDYyOVowgYsxCzAJBgNVBAYTAlVTMQswCQYDVQQIDAJD
QTERMA8GA1UEBwwIVG9ycmFuY2UxDTALBgNVBAoMBGhvbWUxDTALBgNVBAsMBHNl
bGYxFzAVBgNVBAMMDmFydGVtaXMtY2xpZW50MSUwIwYJKoZIhvcNAQkBFhZkb24u
cmVzdGF1cmlAZ21haWwuY29tMIIBIjANBgkqhkiG9w0BAQEFAAOCAQ8AMIIBCgKC
AQEAmweklIuCZjYLyLeL1pv/a4eRNrEFZQ+NeP3SuvegLsbTFNvoplNIxHZM2ksh
/DRylcXHiO39nscf1mj74Lr5DPEKrzd80aTvfQTIZi16gPslp0gZlLLtnQ7cpitE
GMgsmzReIIyQbK+76EPtvPV3oI2jVL5481Tw8GFknzNb472QbI2nf4bstUiRDLcF
DwDg3lIw6yaaLmp60h5Y390s1YgI2L1gbOIqEJthmzFjxf7Xd4F6nMbYkF0VeFeV
3GVxxxlGSrFB+dQMb+qba+5B3HnaaO9oN2AWDsgzWRw61fFxU3UlhM4RVFcDDEDV
yBn2LP+ZXHb1fXYEFKxm/fgqrwIDAQABMA0GCSqGSIb3DQEBCwUAA4IBAQAtgR6B
KQk51kXGgvfrtkJxmCUm8+MOPeQlj9JePMhzVF5Kgm4EY5s+Ob9LAmYBnSXW27zT
7+YGX+LHe/RKU8WPLKivjJCPEHfGAr3nsiXS2NimyqGRuPOuthu8QONkD1oSywef
fNbwgaYPsX3coyFTPQ0zPhl4sJg+6ZxS4SHZLE6JpI7cOgN70rm6GE0Op4mBmx4s
5azLyXMBfIOBUXIb7Ss57xrvc3S0CuXi/24fcFCCFjH+NQSD0ANmuiW/BZCFkXJk
VL75leDWOfeJXaIUYg5XAzBTXjLVz0xECQPOlx+9boZNqnauR9/52xPtSdVzzbJ2
Z0ilw+87qlbVHQgI
-----END CERTIFICATE-----
