Certificate:
    Data:
        Version: 3 (0x2)
        Serial Number:
            2c:b4:bc:9c:a7:a6:7d:e6:3a:4c:7c:6f:a8:c9:e5:8e:8b:9c:af:1c
        Signature Algorithm: sha256WithRSAEncryption
        Issuer: C = US, ST = CA, L = Torrance, O = home, OU = self, CN = root-ca, emailAddress = don.restauri@gmail.com
        Validity
            Not Before: Feb  6 16:02:23 2023 GMT
            Not After : Feb  3 16:02:23 2033 GMT
        Subject: C = US, ST = CA, L = Torrance, O = home, OU = self, CN = root-ca, emailAddress = don.restauri@gmail.com
        Subject Public Key Info:
            Public Key Algorithm: rsaEncryption
                RSA Public-Key: (2048 bit)
                Modulus:
                    00:d4:d3:fb:16:af:80:e7:cd:2a:cf:04:fd:fa:28:
                    7c:8c:98:66:57:d0:39:90:bf:3c:e7:0d:81:1d:be:
                    ff:04:dd:e8:72:37:27:51:4a:46:5d:0a:05:d2:6f:
                    f0:3d:2b:57:40:05:32:93:82:56:08:4b:b6:5f:66:
                    86:9e:a6:7d:b1:7c:d2:01:3b:6d:87:e9:67:e6:36:
                    1c:12:fc:06:aa:49:03:88:af:12:a9:8e:ee:b4:ea:
                    15:10:d9:69:93:b0:83:b9:ae:bf:bd:0b:c2:0b:55:
                    48:bc:35:dc:3e:4e:7a:cb:a4:42:93:67:26:9f:43:
                    e8:42:84:7c:27:af:57:aa:bd:e7:bd:1e:9c:4a:0e:
                    70:4c:41:04:ab:07:c4:59:1b:f2:01:c6:7e:20:8a:
                    e8:60:cd:63:c2:5f:1b:75:b9:d5:ff:3a:68:c6:6d:
                    83:bd:34:70:29:25:3f:0a:d6:2c:7f:0d:55:1a:78:
                    d4:fb:8b:94:03:fa:a5:f9:0f:63:ca:72:f4:cc:84:
                    57:50:5e:98:fa:99:3a:e7:b2:ab:1b:37:e6:32:af:
                    4e:cf:13:bf:3d:19:25:65:bd:72:5c:67:75:5e:ef:
                    d4:55:a9:62:df:14:85:3c:1f:b8:a8:5c:74:cf:74:
                    5f:9d:31:1f:e6:cd:7e:d6:be:ad:a8:df:a7:e6:eb:
                    f1:af
                Exponent: 65537 (0x10001)
        X509v3 extensions:
            X509v3 Subject Key Identifier: 
                74:0D:97:A8:E0:DE:01:0F:16:72:AF:A3:A2:5A:1E:CE:F2:8C:71:7E
            X509v3 Authority Key Identifier: 
                keyid:74:0D:97:A8:E0:DE:01:0F:16:72:AF:A3:A2:5A:1E:CE:F2:8C:71:7E

            X509v3 Basic Constraints: critical
                CA:TRUE
    Signature Algorithm: sha256WithRSAEncryption
         8c:b6:17:e4:20:ca:6c:e3:fd:b9:ad:11:05:f4:0e:1a:c7:07:
         38:87:6a:06:3e:73:76:dc:6b:8a:6e:f5:95:41:00:52:c8:70:
         7c:91:72:36:1d:9b:b4:67:2f:c3:25:75:6f:d3:9f:ad:fc:af:
         cb:e0:ec:91:e0:4e:81:9e:56:30:45:26:a6:6d:25:97:21:8e:
         6d:8a:9f:e8:86:b2:fd:bf:c1:1d:ba:63:f3:fe:62:0e:46:d7:
         61:30:d5:bd:b4:ad:ef:bd:36:3b:65:b1:77:e2:13:15:58:f2:
         b9:76:bf:a3:6a:42:7c:2e:96:25:00:9b:85:90:14:74:b9:45:
         22:29:1f:ed:3d:5a:ec:1a:a0:31:17:7d:b1:ef:7d:ca:1d:b0:
         06:9e:94:67:9b:b2:1f:3d:15:a6:02:90:e6:e7:e8:91:d1:fb:
         95:51:67:59:86:c1:3a:e4:fe:37:00:d7:a5:b4:8d:71:3a:0e:
         b8:87:ff:06:eb:f3:19:f5:be:1f:ff:05:46:76:1e:00:8f:aa:
         06:84:6d:94:48:8a:e4:bc:04:d9:21:d2:3f:81:4f:74:41:b2:
         bb:80:9f:94:91:38:24:12:a8:dd:e9:4a:89:7d:ba:2c:9f:92:
         e2:8e:ba:54:bc:81:37:a7:80:77:da:29:dd:ad:8a:8e:20:52:
         2c:04:aa:1e
-----BEGIN CERTIFICATE-----
MIID6zCCAtOgAwIBAgIULLS8nKemfeY6THxvqMnljoucrxwwDQYJKoZIhvcNAQEL
BQAwgYQxCzAJBgNVBAYTAlVTMQswCQYDVQQIDAJDQTERMA8GA1UEBwwIVG9ycmFu
Y2UxDTALBgNVBAoMBGhvbWUxDTALBgNVBAsMBHNlbGYxEDAOBgNVBAMMB3Jvb3Qt
Y2ExJTAjBgkqhkiG9w0BCQEWFmRvbi5yZXN0YXVyaUBnbWFpbC5jb20wHhcNMjMw
MjA2MTYwMjIzWhcNMzMwMjAzMTYwMjIzWjCBhDELMAkGA1UEBhMCVVMxCzAJBgNV
BAgMAkNBMREwDwYDVQQHDAhUb3JyYW5jZTENMAsGA1UECgwEaG9tZTENMAsGA1UE
CwwEc2VsZjEQMA4GA1UEAwwHcm9vdC1jYTElMCMGCSqGSIb3DQEJARYWZG9uLnJl
c3RhdXJpQGdtYWlsLmNvbTCCASIwDQYJKoZIhvcNAQEBBQADggEPADCCAQoCggEB
ANTT+xavgOfNKs8E/foofIyYZlfQOZC/POcNgR2+/wTd6HI3J1FKRl0KBdJv8D0r
V0AFMpOCVghLtl9mhp6mfbF80gE7bYfpZ+Y2HBL8BqpJA4ivEqmO7rTqFRDZaZOw
g7muv70LwgtVSLw13D5OesukQpNnJp9D6EKEfCevV6q9570enEoOcExBBKsHxFkb
8gHGfiCK6GDNY8JfG3W51f86aMZtg700cCklPwrWLH8NVRp41PuLlAP6pfkPY8py
9MyEV1BemPqZOueyqxs35jKvTs8Tvz0ZJWW9clxndV7v1FWpYt8UhTwfuKhcdM90
X50xH+bNfta+rajfp+br8a8CAwEAAaNTMFEwHQYDVR0OBBYEFHQNl6jg3gEPFnKv
o6JaHs7yjHF+MB8GA1UdIwQYMBaAFHQNl6jg3gEPFnKvo6JaHs7yjHF+MA8GA1Ud
EwEB/wQFMAMBAf8wDQYJKoZIhvcNAQELBQADggEBAIy2F+Qgymzj/bmtEQX0DhrH
BziHagY+c3bca4pu9ZVBAFLIcHyRcjYdm7RnL8MldW/Tn638r8vg7JHgToGeVjBF
JqZtJZchjm2Kn+iGsv2/wR26Y/P+Yg5G12Ew1b20re+9NjtlsXfiExVY8rl2v6Nq
QnwuliUAm4WQFHS5RSIpH+09WuwaoDEXfbHvfcodsAaelGebsh89FaYCkObn6JHR
+5VRZ1mGwTrk/jcA16W0jXE6DriH/wbr8xn1vh//BUZ2HgCPqgaEbZRIiuS8BNkh
0j+BT3RBsruAn5SROCQSqN3pSol9uiyfkuKOulS8gTengHfaKd2tio4gUiwEqh4=
-----END CERTIFICATE-----
