Certificate:
    Data:
        Version: 3 (0x2)
        Serial Number:
            40:8f:5a:05:fc:3a:ee:ea:bd:b1:10:5a:6e:ad:92:f2:85:5b:cb:26
        Signature Algorithm: sha256WithRSAEncryption
        Issuer: C = US, ST = CA, L = Torrance, O = home, OU = self, CN = root-ca, emailAddress = don.restauri@gmail.com
        Validity
            Not Before: Feb  6 16:02:23 2023 GMT
            Not After : Feb  3 16:02:23 2033 GMT
        Subject: C = US, ST = CA, L = Torrance, O = home, OU = self, CN = artemis-client, emailAddress = don.restauri@gmail.com
        Subject Public Key Info:
            Public Key Algorithm: rsaEncryption
                RSA Public-Key: (2048 bit)
                Modulus:
                    00:d1:4f:68:b3:15:4b:00:9e:44:e4:f3:a7:b5:35:
                    bd:d6:69:cd:f0:72:0d:9e:c6:23:9b:e4:c0:f9:11:
                    08:79:06:e1:4e:15:c9:16:54:21:57:a7:5c:80:28:
                    09:b3:5d:59:90:98:b2:4b:c8:59:2b:a1:9e:21:47:
                    c7:47:31:a7:46:f2:e6:2f:a5:bb:f1:d6:fd:d8:53:
                    86:31:9c:43:15:8b:5b:ae:2f:84:9a:c3:6b:4b:e7:
                    ca:e8:68:0e:62:3f:f3:09:4a:e8:52:c0:22:ed:57:
                    2e:ab:3d:9a:68:0f:1a:d4:24:58:ec:fb:4e:be:ec:
                    a8:35:c2:d8:cd:cd:37:88:0d:61:9b:5a:0d:ff:a8:
                    f7:3c:d3:aa:51:3b:1e:64:34:60:d2:65:76:64:2d:
                    cd:e6:f4:d4:61:a8:19:4f:96:32:e0:8b:c6:e0:59:
                    53:b9:6e:e2:7d:a3:ba:d7:21:76:ba:7f:a8:6f:99:
                    0f:96:76:e2:0f:14:de:f5:ff:26:bf:59:55:5a:f6:
                    af:4a:2d:a8:07:a0:13:44:88:49:b7:78:c9:47:d9:
                    a1:cd:3d:e1:ea:63:50:8c:cb:a3:bf:1c:44:c1:32:
                    dc:16:2a:cf:39:06:be:d3:a4:74:21:ce:7f:0c:7f:
                    5d:a7:f8:b5:ca:23:72:c8:23:3c:a4:f5:06:be:cf:
                    ea:db
                Exponent: 65537 (0x10001)
        X509v3 extensions:
            X509v3 Authority Key Identifier: 
                keyid:74:0D:97:A8:E0:DE:01:0F:16:72:AF:A3:A2:5A:1E:CE:F2:8C:71:7E

            X509v3 Basic Constraints: 
                CA:FALSE
            X509v3 Key Usage: 
                Digital Signature, Non Repudiation, Key Encipherment, Data Encipherment
            X509v3 Subject Alternative Name: 
                DNS:artemis-client
    Signature Algorithm: sha256WithRSAEncryption
         6d:fb:1c:96:d6:65:fc:82:e3:a4:b5:64:2f:90:ee:af:65:1b:
         4e:ec:a2:05:00:33:22:17:9a:53:87:38:24:df:2e:c7:88:c4:
         89:44:fe:38:4c:eb:e1:93:5f:38:7f:8b:05:8d:37:de:85:cf:
         ef:06:dc:56:53:e8:32:5b:dd:4d:c1:95:3e:e7:83:22:70:be:
         f7:36:96:03:5b:3f:05:54:1a:5b:15:54:e4:7a:af:f1:2e:62:
         6a:79:a8:c6:43:d3:6d:55:d3:e3:36:bb:97:eb:1c:fc:5e:ff:
         be:ea:fc:e1:4d:38:c4:8c:4e:56:d7:dd:df:3a:09:9b:84:f0:
         ce:b3:77:93:00:41:63:8a:8a:a4:8f:6c:ef:ad:0c:89:cc:f6:
         e6:58:91:e8:ac:94:0b:60:83:c8:09:de:11:1e:db:59:a3:8d:
         47:2e:61:5e:6c:08:c5:1d:f9:8f:d0:8d:0d:db:89:28:12:db:
         51:d3:36:45:24:a7:cc:16:32:96:e7:43:63:77:4b:07:0c:e1:
         4e:ea:4f:3b:8f:30:8a:a8:7d:05:ff:a4:3b:e9:fc:b6:12:dc:
         44:ca:3c:74:4c:64:2e:4d:b2:1e:a7:ed:a4:bb:b3:69:ec:cd:
         b2:e8:76:ff:28:f3:4b:41:c1:13:ae:c3:54:d7:e8:da:4f:ca:
         ff:34:1d:01
-----BEGIN CERTIFICATE-----
MIID9TCCAt2gAwIBAgIUQI9aBfw67uq9sRBabq2S8oVbyyYwDQYJKoZIhvcNAQEL
BQAwgYQxCzAJBgNVBAYTAlVTMQswCQYDVQQIDAJDQTERMA8GA1UEBwwIVG9ycmFu
Y2UxDTALBgNVBAoMBGhvbWUxDTALBgNVBAsMBHNlbGYxEDAOBgNVBAMMB3Jvb3Qt
Y2ExJTAjBgkqhkiG9w0BCQEWFmRvbi5yZXN0YXVyaUBnbWFpbC5jb20wHhcNMjMw
MjA2MTYwMjIzWhcNMzMwMjAzMTYwMjIzWjCBizELMAkGA1UEBhMCVVMxCzAJBgNV
BAgMAkNBMREwDwYDVQQHDAhUb3JyYW5jZTENMAsGA1UECgwEaG9tZTENMAsGA1UE
CwwEc2VsZjEXMBUGA1UEAwwOYXJ0ZW1pcy1jbGllbnQxJTAjBgkqhkiG9w0BCQEW
FmRvbi5yZXN0YXVyaUBnbWFpbC5jb20wggEiMA0GCSqGSIb3DQEBAQUAA4IBDwAw
ggEKAoIBAQDRT2izFUsAnkTk86e1Nb3Wac3wcg2exiOb5MD5EQh5BuFOFckWVCFX
p1yAKAmzXVmQmLJLyFkroZ4hR8dHMadG8uYvpbvx1v3YU4YxnEMVi1uuL4Saw2tL
58roaA5iP/MJSuhSwCLtVy6rPZpoDxrUJFjs+06+7Kg1wtjNzTeIDWGbWg3/qPc8
06pROx5kNGDSZXZkLc3m9NRhqBlPljLgi8bgWVO5buJ9o7rXIXa6f6hvmQ+WduIP
FN71/ya/WVVa9q9KLagHoBNEiEm3eMlH2aHNPeHqY1CMy6O/HETBMtwWKs85Br7T
pHQhzn8Mf12n+LXKI3LIIzyk9Qa+z+rbAgMBAAGjVjBUMB8GA1UdIwQYMBaAFHQN
l6jg3gEPFnKvo6JaHs7yjHF+MAkGA1UdEwQCMAAwCwYDVR0PBAQDAgTwMBkGA1Ud
EQQSMBCCDmFydGVtaXMtY2xpZW50MA0GCSqGSIb3DQEBCwUAA4IBAQBt+xyW1mX8
guOktWQvkO6vZRtO7KIFADMiF5pThzgk3y7HiMSJRP44TOvhk184f4sFjTfehc/v
BtxWU+gyW91NwZU+54MicL73NpYDWz8FVBpbFVTkeq/xLmJqeajGQ9NtVdPjNruX
6xz8Xv++6vzhTTjEjE5W193fOgmbhPDOs3eTAEFjioqkj2zvrQyJzPbmWJHorJQL
YIPICd4RHttZo41HLmFebAjFHfmP0I0N24koEttR0zZFJKfMFjKW50Njd0sHDOFO
6k87jzCKqH0F/6Q76fy2EtxEyjx0TGQuTbIep+2ku7Np7M2y6Hb/KPNLQcETrsNU
1+jaT8r/NB0B
-----END CERTIFICATE-----
